target datalayout = "e-m:e-p270:32:32-p271:32:32-p272:64:64-i64:64-i128:128-f80:128-n8:16:32:64-S128"
target triple = "x86_64-pc-linux-gnu"

%class.hwf = type { double }

; Function Attrs: mustprogress nounwind uwtable
define hidden noundef i64 @_Z3RAWd(double noundef %0) #5 {
  %2 = alloca double, align 8
  %3 = alloca i64, align 8
  store double %0, ptr %2, align 8, !tbaa !12
  call void @llvm.lifetime.start.p0(i64 8, ptr %3) #3
  call void @llvm.memcpy.p0.p0.i64(ptr align 8 %3, ptr align 8 %2, i64 8, i1 false)
  %4 = load i64, ptr %3, align 8, !tbaa !14
  call void @llvm.lifetime.end.p0(i64 8, ptr %3) #3
  ret i64 %4
}

; Function Attrs: mustprogress nounwind uwtable
define hidden noundef zeroext i1 @_ZN11hwf_manager2ltERK3hwfS2_(ptr noundef nonnull align 8 dereferenceable(736) %0, ptr noundef nonnull align 8 dereferenceable(8) %1, ptr noundef nonnull align 8 dereferenceable(8) %2) #5 align 2 {
  %4 = alloca ptr, align 8
  %5 = alloca ptr, align 8
  %6 = alloca ptr, align 8
  store ptr %0, ptr %4, align 8, !tbaa !3
  store ptr %1, ptr %5, align 8, !tbaa !16
  store ptr %2, ptr %6, align 8, !tbaa !16
  %7 = load ptr, ptr %5, align 8, !tbaa !16
  %8 = getelementptr inbounds nuw %class.hwf, ptr %7, i32 0, i32 0
  %9 = load double, ptr %8, align 8, !tbaa !20
  %10 = load ptr, ptr %6, align 8, !tbaa !16
  %11 = getelementptr inbounds nuw %class.hwf, ptr %10, i32 0, i32 0
  %12 = load double, ptr %11, align 8, !tbaa !20
  %13 = fcmp olt double %9, %12
  ret i1 %13
}

; Function Attrs: mustprogress nounwind uwtable
define hidden noundef zeroext i1 @_ZN11hwf_manager6is_nanERK3hwf(ptr noundef nonnull align 8 dereferenceable(736) %0, ptr noundef nonnull align 8 dereferenceable(8) %1) #5 align 2 {
  %3 = alloca ptr, align 8
  %4 = alloca ptr, align 8
  %5 = alloca i8, align 1
  store ptr %0, ptr %3, align 8, !tbaa !3
  store ptr %1, ptr %4, align 8, !tbaa !16
  call void @llvm.lifetime.start.p0(i64 1, ptr %5) #3
  %6 = load ptr, ptr %4, align 8, !tbaa !16
  %7 = getelementptr inbounds nuw %class.hwf, ptr %6, i32 0, i32 0
  %8 = load double, ptr %7, align 8, !tbaa !20
  %9 = call noundef i64 @_Z3RAWd(double noundef %8)
  %10 = and i64 %9, 9218868437227405312
  %11 = icmp eq i64 %10, 9218868437227405312
  br i1 %11, label %12, label %19

12:                                               ; preds = %2
  %13 = load ptr, ptr %4, align 8, !tbaa !16
  %14 = getelementptr inbounds nuw %class.hwf, ptr %13, i32 0, i32 0
  %15 = load double, ptr %14, align 8, !tbaa !20
  %16 = call noundef i64 @_Z3RAWd(double noundef %15)
  %17 = and i64 %16, 4503599627370495
  %18 = icmp ne i64 %17, 0
  br label %19

19:                                               ; preds = %12, %2
  %20 = phi i1 [ false, %2 ], [ %18, %12 ]
  %21 = zext i1 %20 to i8
  store i8 %21, ptr %5, align 1, !tbaa !52
  %22 = load i8, ptr %5, align 1, !tbaa !52, !range !54, !noundef !55
  %23 = trunc i8 %22 to i1
  call void @llvm.lifetime.end.p0(i64 1, ptr %5) #3
  ret i1 %23
}

; Function Attrs: mustprogress uwtable
define hidden void @_ZN11hwf_manager7maximumERK3hwfS2_RS0_(ptr noundef nonnull align 8 dereferenceable(736) %0, ptr noundef nonnull align 8 dereferenceable(8) %1, ptr noundef nonnull align 8 dereferenceable(8) %2, ptr noundef nonnull align 8 dereferenceable(8) %3) #4 align 2 {
  %5 = alloca ptr, align 8
  %6 = alloca ptr, align 8
  %7 = alloca ptr, align 8
  %8 = alloca ptr, align 8
  store ptr %0, ptr %5, align 8, !tbaa !3
  store ptr %1, ptr %6, align 8, !tbaa !16
  store ptr %2, ptr %7, align 8, !tbaa !16
  store ptr %3, ptr %8, align 8, !tbaa !16
  %9 = load ptr, ptr %5, align 8
  %10 = load ptr, ptr %6, align 8, !tbaa !16
  %11 = call noundef zeroext i1 @_ZN11hwf_manager6is_nanERK3hwf(ptr noundef nonnull align 8 dereferenceable(736) %9, ptr noundef nonnull align 8 dereferenceable(8) %10)
  br i1 %11, label %12, label %18

12:                                               ; preds = %4
  %13 = load ptr, ptr %7, align 8, !tbaa !16
  %14 = getelementptr inbounds nuw %class.hwf, ptr %13, i32 0, i32 0
  %15 = load double, ptr %14, align 8, !tbaa !20
  %16 = load ptr, ptr %8, align 8, !tbaa !16
  %17 = getelementptr inbounds nuw %class.hwf, ptr %16, i32 0, i32 0
  store double %15, ptr %17, align 8, !tbaa !20
  br label %45

18:                                               ; preds = %4
  %19 = load ptr, ptr %7, align 8, !tbaa !16
  %20 = call noundef zeroext i1 @_ZN11hwf_manager6is_nanERK3hwf(ptr noundef nonnull align 8 dereferenceable(736) %9, ptr noundef nonnull align 8 dereferenceable(8) %19)
  br i1 %20, label %21, label %27

21:                                               ; preds = %18
  %22 = load ptr, ptr %6, align 8, !tbaa !16
  %23 = getelementptr inbounds nuw %class.hwf, ptr %22, i32 0, i32 0
  %24 = load double, ptr %23, align 8, !tbaa !20
  %25 = load ptr, ptr %8, align 8, !tbaa !16
  %26 = getelementptr inbounds nuw %class.hwf, ptr %25, i32 0, i32 0
  store double %24, ptr %26, align 8, !tbaa !20
  br label %44

27:                                               ; preds = %18
  %28 = load ptr, ptr %6, align 8, !tbaa !16
  %29 = load ptr, ptr %7, align 8, !tbaa !16
  %30 = call noundef zeroext i1 @_ZN11hwf_manager2ltERK3hwfS2_(ptr noundef nonnull align 8 dereferenceable(736) %9, ptr noundef nonnull align 8 dereferenceable(8) %28, ptr noundef nonnull align 8 dereferenceable(8) %29)
  br i1 %30, label %31, label %37

31:                                               ; preds = %27
  %32 = load ptr, ptr %7, align 8, !tbaa !16
  %33 = getelementptr inbounds nuw %class.hwf, ptr %32, i32 0, i32 0
  %34 = load double, ptr %33, align 8, !tbaa !20
  %35 = load ptr, ptr %8, align 8, !tbaa !16
  %36 = getelementptr inbounds nuw %class.hwf, ptr %35, i32 0, i32 0
  store double %34, ptr %36, align 8, !tbaa !20
  br label %43

37:                                               ; preds = %27
  %38 = load ptr, ptr %6, align 8, !tbaa !16
  %39 = getelementptr inbounds nuw %class.hwf, ptr %38, i32 0, i32 0
  %40 = load double, ptr %39, align 8, !tbaa !20
  %41 = load ptr, ptr %8, align 8, !tbaa !16
  %42 = getelementptr inbounds nuw %class.hwf, ptr %41, i32 0, i32 0
  store double %40, ptr %42, align 8, !tbaa !20
  br label %43

43:                                               ; preds = %37, %31
  br label %44

44:                                               ; preds = %43, %21
  br label %45

45:                                               ; preds = %44, %12
  ret void
}